target datalayout = "e-m:e-p270:32:32-p271:32:32-p272:64:64-i64:64-i128:128-f80:128-n8:16:32:64-S128"
target triple = "x86_64-pc-linux-gnu"

%"class.Eigen::Matrix" = type { %"class.Eigen::PlainObjectBase" }
%"class.Eigen::PlainObjectBase" = type { %"class.Eigen::DenseStorage" }
%"class.Eigen::DenseStorage" = type { %"struct.Eigen::internal::plain_array" }
%"struct.Eigen::internal::plain_array" = type { [3 x double] }

; Function Attrs: mustprogress nounwind ssp uwtable
define linkonce_odr void @_ZN5Eigen8internal28check_static_allocation_sizeIdLi3EEEvv() #2 comdat {
  ret void
}

; Function Attrs: mustprogress ssp uwtable
define linkonce_odr void @_ZN5Eigen8internal11plain_arrayIdLi3ELi0ELi0EEC2Ev(ptr noundef nonnull align 8 dereferenceable(24) %0) unnamed_addr #1 comdat align 2 {
  %2 = alloca ptr, align 8
  store ptr %0, ptr %2, align 8, !tbaa !45
  call void @_ZN5Eigen8internal28check_static_allocation_sizeIdLi3EEEvv()
  ret void
}

; Function Attrs: mustprogress nounwind ssp uwtable
define linkonce_odr void @_ZN5Eigen9DenseBaseINS_6MatrixIdLi3ELi1ELi0ELi3ELi1EEEEC2Ev(ptr noundef nonnull align 1 dereferenceable(1) %0) unnamed_addr #2 comdat align 2 {
  %2 = alloca ptr, align 8
  store ptr %0, ptr %2, align 8, !tbaa !43
  ret void
}

; Function Attrs: mustprogress ssp uwtable
define linkonce_odr void @_ZN5Eigen12DenseStorageIdLi3ELi3ELi1ELi0EEC2Ev(ptr noundef nonnull align 8 dereferenceable(24) %0) unnamed_addr #1 comdat align 2 {
  %2 = alloca ptr, align 8
  store ptr %0, ptr %2, align 8, !tbaa !39
  %3 = load ptr, ptr %2, align 8
  %4 = getelementptr inbounds nuw %"class.Eigen::DenseStorage", ptr %3, i32 0, i32 0
  call void @_ZN5Eigen8internal11plain_arrayIdLi3ELi0ELi0EEC2Ev(ptr noundef nonnull align 8 dereferenceable(24) %4)
  ret void
}

; Function Attrs: mustprogress ssp uwtable
define linkonce_odr void @_ZN5Eigen10MatrixBaseINS_6MatrixIdLi3ELi1ELi0ELi3ELi1EEEEC2Ev(ptr noundef nonnull align 1 dereferenceable(1) %0) unnamed_addr #1 comdat align 2 {
  %2 = alloca ptr, align 8
  store ptr %0, ptr %2, align 8, !tbaa !41
  %3 = load ptr, ptr %2, align 8
  call void @_ZN5Eigen9DenseBaseINS_6MatrixIdLi3ELi1ELi0ELi3ELi1EEEEC2Ev(ptr noundef nonnull align 1 dereferenceable(1) %3)
  ret void
}

; Function Attrs: mustprogress nounwind ssp uwtable
define linkonce_odr noundef ptr @_ZN5Eigen12DenseStorageIdLi3ELi3ELi1ELi0EE4dataEv(ptr noundef nonnull align 8 dereferenceable(24) %0) #2 comdat align 2 {
  %2 = alloca ptr, align 8
  store ptr %0, ptr %2, align 8, !tbaa !39
  %3 = load ptr, ptr %2, align 8
  %4 = getelementptr inbounds nuw %"class.Eigen::DenseStorage", ptr %3, i32 0, i32 0
  %5 = getelementptr inbounds nuw %"struct.Eigen::internal::plain_array", ptr %4, i32 0, i32 0
  %6 = getelementptr inbounds [3 x double], ptr %5, i64 0, i64 0
  ret ptr %6
}

; Function Attrs: inlinehint mustprogress ssp uwtable
define linkonce_odr void @_ZN5Eigen15PlainObjectBaseINS_6MatrixIdLi3ELi1ELi0ELi3ELi1EEEEC2Ev(ptr noundef nonnull align 8 dereferenceable(24) %0) unnamed_addr #5 comdat align 2 {
  %2 = alloca ptr, align 8
  store ptr %0, ptr %2, align 8, !tbaa !37
  %3 = load ptr, ptr %2, align 8
  call void @_ZN5Eigen10MatrixBaseINS_6MatrixIdLi3ELi1ELi0ELi3ELi1EEEEC2Ev(ptr noundef nonnull align 1 dereferenceable(1) %3)
  %4 = getelementptr inbounds nuw %"class.Eigen::PlainObjectBase", ptr %3, i32 0, i32 0
  call void @_ZN5Eigen12DenseStorageIdLi3ELi3ELi1ELi0EEC2Ev(ptr noundef nonnull align 8 dereferenceable(24) %4)
  ret void
}

; Function Attrs: inlinehint mustprogress ssp uwtable
define linkonce_odr void @_ZN5Eigen6MatrixIdLi3ELi1ELi0ELi3ELi1EEC2ERKdS3_S3_(ptr noundef nonnull align 8 dereferenceable(24) %0, ptr noundef nonnull align 8 dereferenceable(8) %1, ptr noundef nonnull align 8 dereferenceable(8) %2, ptr noundef nonnull align 8 dereferenceable(8) %3) unnamed_addr #5 comdat align 2 {
  %5 = alloca ptr, align 8
  %6 = alloca ptr, align 8
  %7 = alloca ptr, align 8
  %8 = alloca ptr, align 8
  store ptr %0, ptr %5, align 8, !tbaa !33
  store ptr %1, ptr %6, align 8, !tbaa !35
  store ptr %2, ptr %7, align 8, !tbaa !35
  store ptr %3, ptr %8, align 8, !tbaa !35
  %9 = load ptr, ptr %5, align 8
  call void @_ZN5Eigen15PlainObjectBaseINS_6MatrixIdLi3ELi1ELi0ELi3ELi1EEEEC2Ev(ptr noundef nonnull align 8 dereferenceable(24) %9)
  %10 = load ptr, ptr %6, align 8, !tbaa !35
  %11 = load double, ptr %10, align 8, !tbaa !9
  %12 = getelementptr inbounds nuw %"class.Eigen::PlainObjectBase", ptr %9, i32 0, i32 0
  %13 = call noundef ptr @_ZN5Eigen12DenseStorageIdLi3ELi3ELi1ELi0EE4dataEv(ptr noundef nonnull align 8 dereferenceable(24) %12)
  %14 = getelementptr inbounds double, ptr %13, i64 0
  store double %11, ptr %14, align 8, !tbaa !9
  %15 = load ptr, ptr %7, align 8, !tbaa !35
  %16 = load double, ptr %15, align 8, !tbaa !9
  %17 = getelementptr inbounds nuw %"class.Eigen::PlainObjectBase", ptr %9, i32 0, i32 0
  %18 = call noundef ptr @_ZN5Eigen12DenseStorageIdLi3ELi3ELi1ELi0EE4dataEv(ptr noundef nonnull align 8 dereferenceable(24) %17)
  %19 = getelementptr inbounds double, ptr %18, i64 1
  store double %16, ptr %19, align 8, !tbaa !9
  %20 = load ptr, ptr %8, align 8, !tbaa !35
  %21 = load double, ptr %20, align 8, !tbaa !9
  %22 = getelementptr inbounds nuw %"class.Eigen::PlainObjectBase", ptr %9, i32 0, i32 0
  %23 = call noundef ptr @_ZN5Eigen12DenseStorageIdLi3ELi3ELi1ELi0EE4dataEv(ptr noundef nonnull align 8 dereferenceable(24) %22)
  %24 = getelementptr inbounds double, ptr %23, i64 2
  store double %21, ptr %24, align 8, !tbaa !9
  ret void
}

; Function Attrs: mustprogress nounwind ssp uwtable
define linkonce_odr noundef double @_ZNK6open3d13visualization8ColorMap11InterpolateEddddd(ptr noundef nonnull align 8 dereferenceable(8) %0, double noundef %1, double noundef %2, double noundef %3, double noundef %4, double noundef %5) #2 comdat align 2 {
  %7 = alloca double, align 8
  %8 = alloca ptr, align 8
  %9 = alloca double, align 8
  %10 = alloca double, align 8
  %11 = alloca double, align 8
  %12 = alloca double, align 8
  %13 = alloca double, align 8
  store ptr %0, ptr %8, align 8, !tbaa !17
  store double %1, ptr %9, align 8, !tbaa !9
  store double %2, ptr %10, align 8, !tbaa !9
  store double %3, ptr %11, align 8, !tbaa !9
  store double %4, ptr %12, align 8, !tbaa !9
  store double %5, ptr %13, align 8, !tbaa !9
  %14 = load double, ptr %9, align 8, !tbaa !9
  %15 = load double, ptr %11, align 8, !tbaa !9
  %16 = fcmp olt double %14, %15
  br i1 %16, label %17, label %19

17:                                               ; preds = %6
  %18 = load double, ptr %10, align 8, !tbaa !9
  store double %18, ptr %7, align 8
  br label %39

19:                                               ; preds = %6
  %20 = load double, ptr %9, align 8, !tbaa !9
  %21 = load double, ptr %13, align 8, !tbaa !9
  %22 = fcmp ogt double %20, %21
  br i1 %22, label %23, label %25

23:                                               ; preds = %19
  %24 = load double, ptr %12, align 8, !tbaa !9
  store double %24, ptr %7, align 8
  br label %39

25:                                               ; preds = %19
  %26 = load double, ptr %9, align 8, !tbaa !9
  %27 = load double, ptr %11, align 8, !tbaa !9
  %28 = fsub double %26, %27
  %29 = load double, ptr %12, align 8, !tbaa !9
  %30 = load double, ptr %10, align 8, !tbaa !9
  %31 = fsub double %29, %30
  %32 = fmul double %28, %31
  %33 = load double, ptr %13, align 8, !tbaa !9
  %34 = load double, ptr %11, align 8, !tbaa !9
  %35 = fsub double %33, %34
  %36 = fdiv double %32, %35
  %37 = load double, ptr %10, align 8, !tbaa !9
  %38 = fadd double %36, %37
  store double %38, ptr %7, align 8
  br label %39

39:                                               ; preds = %25, %23, %17
  %40 = load double, ptr %7, align 8
  ret double %40
}

; Function Attrs: mustprogress ssp uwtable
define void @_ZNK6open3d13visualization14ColorMapSummer8GetColorEd(ptr dead_on_unwind noalias writable sret(%"class.Eigen::Matrix") align 8 %0, ptr noundef nonnull align 8 dereferenceable(8) %1, double noundef %2) unnamed_addr #1 align 2 {
  %4 = alloca ptr, align 8
  %5 = alloca ptr, align 8
  %6 = alloca double, align 8
  %7 = alloca double, align 8
  %8 = alloca double, align 8
  %9 = alloca double, align 8
  store ptr %0, ptr %4, align 8
  store ptr %1, ptr %5, align 8, !tbaa !13
  store double %2, ptr %6, align 8, !tbaa !9
  %10 = load ptr, ptr %5, align 8
  call void @llvm.lifetime.start.p0(i64 8, ptr %7) #14
  %11 = load double, ptr %6, align 8, !tbaa !9
  %12 = call noundef double @_ZNK6open3d13visualization8ColorMap11InterpolateEddddd(ptr noundef nonnull align 8 dereferenceable(8) %10, double noundef %11, double noundef 0.000000e+00, double noundef 0.000000e+00, double noundef 1.000000e+00, double noundef 1.000000e+00)
  store double %12, ptr %7, align 8, !tbaa !9
  call void @llvm.lifetime.start.p0(i64 8, ptr %8) #14
  %13 = load double, ptr %6, align 8, !tbaa !9
  %14 = call noundef double @_ZNK6open3d13visualization8ColorMap11InterpolateEddddd(ptr noundef nonnull align 8 dereferenceable(8) %10, double noundef %13, double noundef 5.000000e-01, double noundef 0.000000e+00, double noundef 1.000000e+00, double noundef 1.000000e+00)
  store double %14, ptr %8, align 8, !tbaa !9
  call void @llvm.lifetime.start.p0(i64 8, ptr %9) #14
  store double 4.000000e-01, ptr %9, align 8, !tbaa !9
  call void @_ZN5Eigen6MatrixIdLi3ELi1ELi0ELi3ELi1EEC2ERKdS3_S3_(ptr noundef nonnull align 8 dereferenceable(24) %0, ptr noundef nonnull align 8 dereferenceable(8) %7, ptr noundef nonnull align 8 dereferenceable(8) %8, ptr noundef nonnull align 8 dereferenceable(8) %9)
  call void @llvm.lifetime.end.p0(i64 8, ptr %9) #14
  call void @llvm.lifetime.end.p0(i64 8, ptr %8) #14
  call void @llvm.lifetime.end.p0(i64 8, ptr %7) #14
  ret void
}